; ModuleID = 'bench/linux/original/lcm.ll'
source_filename = "bench/linux/original/lcm.ll"
target datalayout = "e-m:e-p270:32:32-p271:32:32-p272:64:64-i64:64-i128:128-f80:128-n8:16:32:64-S128"
target triple = "x86_64-unknown-linux-gnu"

module asm ".section \22.export_symbol\22,\22a\22 ; __export_symbol_lcm: ; .asciz \22GPL\22 ; .asciz \22\22 ; .balign 8 ; .quad lcm ; .previous"
module asm ".section \22.export_symbol\22,\22a\22 ; __export_symbol_lcm_not_zero: ; .asciz \22GPL\22 ; .asciz \22\22 ; .balign 8 ; .quad lcm_not_zero ; .previous"

@__UNIQUE_ID___addressable_lcm0 = internal global ptr @lcm, section ".discard.addressable", align 8
@__UNIQUE_ID___addressable_lcm_not_zero1 = internal global ptr @lcm_not_zero, section ".discard.addressable", align 8
@llvm.compiler.used = appending global [2 x ptr] [ptr @__UNIQUE_ID___addressable_lcm0, ptr @__UNIQUE_ID___addressable_lcm_not_zero1], section "llvm.metadata"

; Function Attrs: fn_ret_thunk_extern mustprogress nofree nosync nounwind null_pointer_is_valid willreturn memory(none)
define dso_local i64 @lcm(i64 noundef %0, i64 noundef %1) #0 align 16 {
  %3 = icmp ne i64 %0, 0
  %4 = icmp ne i64 %1, 0
  %5 = and i1 %3, %4
  br i1 %5, label %6, label %10

6:                                                ; preds = %2
  %7 = tail call i64 @gcd(i64 noundef %0, i64 noundef %1) #2
  %8 = udiv i64 %0, %7
  %9 = mul i64 %8, %1
  br label %10

10:                                               ; preds = %6, %2
  %11 = phi i64 [ %9, %6 ], [ 0, %2 ]
  ret i64 %11
}

; Function Attrs: mustprogress nofree nosync nounwind null_pointer_is_valid willreturn memory(none)
declare dso_local i64 @gcd(i64 noundef, i64 noundef) local_unnamed_addr #1

; Function Attrs: fn_ret_thunk_extern mustprogress nofree nosync nounwind null_pointer_is_valid willreturn memory(none)
define dso_local noundef i64 @lcm_not_zero(i64 noundef %0, i64 noundef %1) #0 align 16 {
  %3 = icmp ne i64 %0, 0
  %4 = icmp ne i64 %1, 0
  %5 = and i1 %3, %4
  br i1 %5, label %8, label %.thread

.thread:                                          ; preds = %2
  %6 = icmp eq i64 %1, 0
  %7 = select i1 %6, i64 %0, i64 %1
  br label %13

8:                                                ; preds = %2
  %9 = tail call i64 @gcd(i64 noundef %0, i64 noundef %1) #2
  %.fr = freeze i64 %9
  %10 = udiv i64 %0, %.fr
  %11 = mul i64 %10, %1
  %12 = icmp eq i64 %11, 0
  %spec.select = select i1 %12, i64 %1, i64 %11
  br label %13

13:                                               ; preds = %8, %.thread
  %14 = phi i64 [ %7, %.thread ], [ %spec.select, %8 ]
  ret i64 %14
}


!llvm.module.flags = !{!0, !1, !2, !3, !4}

!0 = !{i32 1, !"wchar_size", i32 2}
!1 = !{i32 8, !"cf-protection-branch", i32 1}
!2 = !{i32 4, !"function_return_thunk_extern", i32 1}
!3 = !{i32 4, !"indirect_branch_cs_prefix", i32 1}
!4 = !{i32 4, !"SkipRaxSetup", i32 1}
